target datalayout = "e-m:e-p270:32:32-p271:32:32-p272:64:64-i64:64-i128:128-f80:128-n8:16:32:64-S128"
target triple = "x86_64-pc-linux-gnu"

%class.VM_Operation = type { ptr, ptr }
%class.VM_ThreadDump = type <{ %class.VM_Operation, ptr, i32, [4 x i8], ptr, i32, i8, i8, [2 x i8] }>

@Heap_lock = external global ptr, align 8

; Function Attrs: mustprogress nounwind uwtable
define hidden void @_ZN13VM_ThreadDump13doit_epilogueEv(ptr noundef nonnull align 8 dereferenceable(46) %0) unnamed_addr #1 align 2 {
  %2 = alloca ptr, align 8
  store ptr %0, ptr %2, align 8
  %3 = load ptr, ptr %2, align 8
  %4 = getelementptr inbounds %class.VM_ThreadDump, ptr %3, i32 0, i32 7
  %5 = load i8, ptr %4, align 1
  %6 = trunc i8 %5 to i1
  br i1 %6, label %7, label %9

7:                                                ; preds = %1
  %8 = load ptr, ptr @Heap_lock, align 8
  call void @_ZN5Mutex6unlockEv(ptr noundef nonnull align 8 dereferenceable(104) %8)
  br label %9

9:                                                ; preds = %7, %1
  ret void
}