; Function Attrs: mustprogress nounwind uwtable
define hidden void @_ZN13VM_ThreadDump13doit_epilogueEv(ptr nocapture noundef nonnull readonly align 8 dereferenceable(46) %0) unnamed_addr #1 align 2 {
  %2 = getelementptr inbounds i8, ptr %0, i64 45
  %3 = load i8, ptr %2, align 1
  %4 = trunc i8 %3 to i1
  br i1 %4, label %5, label %7

5:                                                ; preds = %1
  %6 = load ptr, ptr @Heap_lock, align 8
  tail call void @_ZN5Mutex6unlockEv(ptr noundef nonnull align 8 dereferenceable(104) %6) #10
  br label %7

7:                                                ; preds = %5, %1
  ret void
}